target datalayout = "e-m:e-p270:32:32-p271:32:32-p272:64:64-i64:64-i128:128-f80:128-n8:16:32:64-S128"
target triple = "x86_64-unknown-linux-gnu"

%struct.QTailQLink = type { ptr, ptr }
%struct.QEnumLookup = type { ptr, ptr, i32 }
%struct.BlockDriverState = type { i32, i8, i8, i8, i8, i8, ptr, ptr, ptr, %struct.anon.0, i8, [4096 x i8], [4096 x i8], [4096 x i8], [16 x i8], ptr, [4096 x i8], %struct.BlockLimits, i32, i32, i32, i32, [32 x i8], %union.anon, %union.anon.1, %union.anon.2, i32, [16 x %struct.anon.3], ptr, %struct.anon.4, ptr, ptr, %struct.anon.5, ptr, ptr, i32, ptr, i64, i64, %struct.QemuMutex, %struct.anon.6, %struct.Stat64, i32, i32, i32, i32, i32, i32, %struct.QemuMutex, %struct.anon.7, %struct.CoQueue, i8, i32, i8, %struct.CoMutex, ptr, ptr }
%struct.anon.0 = type { ptr }
%struct.BlockLimits = type { i32, i64, i32, i64, i32, i32, i32, i64, i32, i64, i64, i32, i8, i32, i32, i32, i32, i32, i32, i32 }
%union.anon = type { %struct.QTailQLink }
%union.anon.1 = type { %struct.QTailQLink }
%union.anon.2 = type { %struct.QTailQLink }
%struct.anon.3 = type { ptr }
%struct.anon.4 = type { ptr }
%struct.anon.5 = type { ptr }
%struct.anon.6 = type { ptr }
%struct.Stat64 = type { i64 }
%struct.QemuMutex = type { %union.pthread_mutex_t, i8 }
%union.pthread_mutex_t = type { %struct.__pthread_mutex_s }
%struct.__pthread_mutex_s = type { i32, i32, i32, i32, i32, i16, i16, %struct.__pthread_internal_list }
%struct.__pthread_internal_list = type { ptr, ptr }
%struct.anon.7 = type { ptr }
%struct.CoQueue = type { %struct.anon.8 }
%struct.anon.8 = type { ptr, ptr }
%struct.CoMutex = type { i32, ptr, %struct.anon.9, %struct.anon.9, i32, i32, ptr }
%struct.anon.9 = type { ptr }
%struct.BDRVBlkdebugState = type { i64, i64, i64, i64, i64, i64, ptr, i64, i64, i32, [48 x %struct.anon.10], %struct.anon.11, %struct.anon.12, %struct.QemuMutex }
%struct.anon.10 = type { ptr }
%struct.anon.11 = type { ptr, ptr }
%struct.anon.12 = type { ptr }
%struct.BlkdebugRule = type { i32, i32, i32, %union.anon.16, %struct.anon.20, %struct.anon.21 }
%union.anon.16 = type { %struct.anon.17 }
%struct.anon.17 = type { i64, i32, i32, i32, i64 }
%struct.anon.20 = type { ptr, ptr }
%struct.anon.21 = type { ptr }
%struct.anon.19 = type { ptr }

@.str.12 = private unnamed_addr constant [25 x i8] c"../qemu/block/blkdebug.c\00", align 1
@BlkdebugEvent_lookup = external constant %struct.QEnumLookup, align 8
@qemu_mutex_lock_func = external global ptr, align 8
@__func__.blkdebug_debug_breakpoint = private unnamed_addr constant [26 x i8] c"blkdebug_debug_breakpoint\00", align 1

; Function Attrs: nounwind sspstrong uwtable
define internal i32 @blkdebug_debug_breakpoint(ptr noundef %bs, ptr noundef %event, ptr noundef %tag) #0 {
entry:
  %retval = alloca i32, align 4
  %bs.addr = alloca ptr, align 8
  %event.addr = alloca ptr, align 8
  %tag.addr = alloca ptr, align 8
  %s = alloca ptr, align 8
  %rule = alloca ptr, align 8
  %blkdebug_event = alloca i32, align 4
  %.compoundliteral = alloca %struct.BlkdebugRule, align 8
  %_f = alloca ptr, align 8
  %tmp = alloca ptr, align 8
  %atomic-temp = alloca ptr, align 8
  store ptr %bs, ptr %bs.addr, align 8
  store ptr %event, ptr %event.addr, align 8
  store ptr %tag, ptr %tag.addr, align 8
  %0 = load ptr, ptr %bs.addr, align 8
  %opaque = getelementptr inbounds %struct.BlockDriverState, ptr %0, i32 0, i32 7
  %1 = load ptr, ptr %opaque, align 8
  store ptr %1, ptr %s, align 8
  %2 = load ptr, ptr %event.addr, align 8
  %call = call i32 @qapi_enum_parse(ptr noundef @BlkdebugEvent_lookup, ptr noundef %2, i32 noundef -1, ptr noundef null)
  store i32 %call, ptr %blkdebug_event, align 4
  %3 = load i32, ptr %blkdebug_event, align 4
  %cmp = icmp slt i32 %3, 0
  br i1 %cmp, label %if.then, label %if.end

if.then:                                          ; preds = %entry
  store i32 -2, ptr %retval, align 4
  br label %return

if.end:                                           ; preds = %entry
  %call1 = call noalias ptr @g_malloc(i64 noundef 72) #13
  store ptr %call1, ptr %rule, align 8
  %4 = load ptr, ptr %rule, align 8
  call void @llvm.memset.p0.i64(ptr align 8 %.compoundliteral, i8 0, i64 72, i1 false)
  %event2 = getelementptr inbounds %struct.BlkdebugRule, ptr %.compoundliteral, i32 0, i32 0
  %5 = load i32, ptr %blkdebug_event, align 4
  store i32 %5, ptr %event2, align 8
  %action = getelementptr inbounds %struct.BlkdebugRule, ptr %.compoundliteral, i32 0, i32 1
  store i32 2, ptr %action, align 4
  %options = getelementptr inbounds %struct.BlkdebugRule, ptr %.compoundliteral, i32 0, i32 3
  %tag3 = getelementptr inbounds %struct.anon.19, ptr %options, i32 0, i32 0
  %6 = load ptr, ptr %tag.addr, align 8
  %call4 = call noalias ptr @g_strdup(ptr noundef %6)
  store ptr %call4, ptr %tag3, align 8
  call void @llvm.memcpy.p0.p0.i64(ptr align 8 %4, ptr align 8 %.compoundliteral, i64 72, i1 false)
  br label %while.cond

while.cond:                                       ; preds = %do.end, %if.end
  br i1 false, label %while.body, label %while.end

while.body:                                       ; preds = %while.cond
  br label %do.body

do.body:                                          ; preds = %while.body
  call void @g_assertion_message_expr(ptr noundef null, ptr noundef @.str.12, i32 noundef 884, ptr noundef @__func__.blkdebug_debug_breakpoint, ptr noundef null) #14
  unreachable

do.end:                                           ; No predecessors!
  br label %while.cond

while.end:                                        ; preds = %while.cond
  %7 = load atomic i64, ptr @qemu_mutex_lock_func monotonic, align 8
  store i64 %7, ptr %atomic-temp, align 8
  %8 = load ptr, ptr %atomic-temp, align 8
  store ptr %8, ptr %tmp, align 8
  %9 = load ptr, ptr %tmp, align 8
  store ptr %9, ptr %_f, align 8
  %10 = load ptr, ptr %_f, align 8
  %11 = load ptr, ptr %s, align 8
  %lock = getelementptr inbounds %struct.BDRVBlkdebugState, ptr %11, i32 0, i32 13
  call void %10(ptr noundef %lock, ptr noundef @.str.12, i32 noundef 884)
  br label %do.body5

do.body5:                                         ; preds = %while.end
  %12 = load ptr, ptr %s, align 8
  %rules = getelementptr inbounds %struct.BDRVBlkdebugState, ptr %12, i32 0, i32 10
  %13 = load i32, ptr %blkdebug_event, align 4
  %idxprom = sext i32 %13 to i64
  %arrayidx = getelementptr [48 x %struct.anon.10], ptr %rules, i64 0, i64 %idxprom
  %lh_first = getelementptr inbounds %struct.anon.10, ptr %arrayidx, i32 0, i32 0
  %14 = load ptr, ptr %lh_first, align 8
  %15 = load ptr, ptr %rule, align 8
  %next = getelementptr inbounds %struct.BlkdebugRule, ptr %15, i32 0, i32 4
  %le_next = getelementptr inbounds %struct.anon.20, ptr %next, i32 0, i32 0
  store ptr %14, ptr %le_next, align 8
  %cmp6 = icmp ne ptr %14, null
  br i1 %cmp6, label %if.then7, label %if.end15

if.then7:                                         ; preds = %do.body5
  %16 = load ptr, ptr %rule, align 8
  %next8 = getelementptr inbounds %struct.BlkdebugRule, ptr %16, i32 0, i32 4
  %le_next9 = getelementptr inbounds %struct.anon.20, ptr %next8, i32 0, i32 0
  %17 = load ptr, ptr %s, align 8
  %rules10 = getelementptr inbounds %struct.BDRVBlkdebugState, ptr %17, i32 0, i32 10
  %18 = load i32, ptr %blkdebug_event, align 4
  %idxprom11 = sext i32 %18 to i64
  %arrayidx12 = getelementptr [48 x %struct.anon.10], ptr %rules10, i64 0, i64 %idxprom11
  %lh_first13 = getelementptr inbounds %struct.anon.10, ptr %arrayidx12, i32 0, i32 0
  %19 = load ptr, ptr %lh_first13, align 8
  %next14 = getelementptr inbounds %struct.BlkdebugRule, ptr %19, i32 0, i32 4
  %le_prev = getelementptr inbounds %struct.anon.20, ptr %next14, i32 0, i32 1
  store ptr %le_next9, ptr %le_prev, align 8
  br label %if.end15

if.end15:                                         ; preds = %if.then7, %do.body5
  %20 = load ptr, ptr %rule, align 8
  %21 = load ptr, ptr %s, align 8
  %rules16 = getelementptr inbounds %struct.BDRVBlkdebugState, ptr %21, i32 0, i32 10
  %22 = load i32, ptr %blkdebug_event, align 4
  %idxprom17 = sext i32 %22 to i64
  %arrayidx18 = getelementptr [48 x %struct.anon.10], ptr %rules16, i64 0, i64 %idxprom17
  %lh_first19 = getelementptr inbounds %struct.anon.10, ptr %arrayidx18, i32 0, i32 0
  store ptr %20, ptr %lh_first19, align 8
  %23 = load ptr, ptr %s, align 8
  %rules20 = getelementptr inbounds %struct.BDRVBlkdebugState, ptr %23, i32 0, i32 10
  %24 = load i32, ptr %blkdebug_event, align 4
  %idxprom21 = sext i32 %24 to i64
  %arrayidx22 = getelementptr [48 x %struct.anon.10], ptr %rules20, i64 0, i64 %idxprom21
  %lh_first23 = getelementptr inbounds %struct.anon.10, ptr %arrayidx22, i32 0, i32 0
  %25 = load ptr, ptr %rule, align 8
  %next24 = getelementptr inbounds %struct.BlkdebugRule, ptr %25, i32 0, i32 4
  %le_prev25 = getelementptr inbounds %struct.anon.20, ptr %next24, i32 0, i32 1
  store ptr %lh_first23, ptr %le_prev25, align 8
  br label %do.end26

do.end26:                                         ; preds = %if.end15
  %26 = load ptr, ptr %s, align 8
  %lock27 = getelementptr inbounds %struct.BDRVBlkdebugState, ptr %26, i32 0, i32 13
  call void @qemu_mutex_unlock_impl(ptr noundef %lock27, ptr noundef @.str.12, i32 noundef 886)
  store i32 0, ptr %retval, align 4
  br label %return

return:                                           ; preds = %do.end26, %if.then
  %27 = load i32, ptr %retval, align 4
  ret i32 %27
}