; Function Attrs: nounwind sspstrong uwtable
define internal range(i32 -2, 1) i32 @blkdebug_debug_breakpoint(ptr noundef readonly captures(none) %bs, ptr noundef %event, ptr noundef %tag) #0 {
entry:
  %opaque = getelementptr inbounds nuw i8, ptr %bs, i64 24
  %0 = load ptr, ptr %opaque, align 8
  %call = tail call i32 @qapi_enum_parse(ptr noundef nonnull @BlkdebugEvent_lookup, ptr noundef %event, i32 noundef -1, ptr noundef null) #13
  %cmp = icmp slt i32 %call, 0
  br i1 %cmp, label %return, label %if.end

if.end:                                           ; preds = %entry
  %call1 = tail call noalias dereferenceable_or_null(72) ptr @g_malloc(i64 noundef 72) #16
  %call4 = tail call noalias ptr @g_strdup(ptr noundef %tag) #13
  store i32 %call, ptr %call1, align 8
  %.compoundliteral.sroa.3.0..sroa_idx = getelementptr inbounds nuw i8, ptr %call1, i64 4
  store i32 2, ptr %.compoundliteral.sroa.3.0..sroa_idx, align 4
  %.compoundliteral.sroa.4.0..sroa_idx = getelementptr inbounds nuw i8, ptr %call1, i64 8
  store i64 0, ptr %.compoundliteral.sroa.4.0..sroa_idx, align 8
  %.compoundliteral.sroa.41.0..sroa_idx = getelementptr inbounds nuw i8, ptr %call1, i64 16
  store ptr %call4, ptr %.compoundliteral.sroa.41.0..sroa_idx, align 8
  %.compoundliteral.sroa.5.0..sroa_idx = getelementptr inbounds nuw i8, ptr %call1, i64 24
  tail call void @llvm.memset.p0.i64(ptr noundef nonnull align 8 dereferenceable(48) %.compoundliteral.sroa.5.0..sroa_idx, i8 0, i64 48, i1 false)
  %1 = load atomic i64, ptr @qemu_mutex_lock_func monotonic, align 8
  %2 = inttoptr i64 %1 to ptr
  %lock = getelementptr inbounds nuw i8, ptr %0, i64 488
  tail call void %2(ptr noundef nonnull %lock, ptr noundef nonnull @.str.12, i32 noundef 884) #13
  %rules = getelementptr inbounds nuw i8, ptr %0, i64 80
  %idxprom = zext nneg i32 %call to i64
  %arrayidx = getelementptr [48 x %struct.anon.10], ptr %rules, i64 0, i64 %idxprom
  %3 = load ptr, ptr %arrayidx, align 8
  %next = getelementptr inbounds nuw i8, ptr %call1, i64 48
  store ptr %3, ptr %next, align 8
  %cmp6.not = icmp eq ptr %3, null
  br i1 %cmp6.not, label %if.end15, label %if.then7

if.then7:                                         ; preds = %if.end
  %le_prev = getelementptr inbounds nuw i8, ptr %3, i64 56
  store ptr %next, ptr %le_prev, align 8
  br label %if.end15

if.end15:                                         ; preds = %if.then7, %if.end
  store ptr %call1, ptr %arrayidx, align 8
  %le_prev25 = getelementptr inbounds nuw i8, ptr %call1, i64 56
  store ptr %arrayidx, ptr %le_prev25, align 8
  tail call void @qemu_mutex_unlock_impl(ptr noundef nonnull %lock, ptr noundef nonnull @.str.12, i32 noundef 886) #13
  br label %return

return:                                           ; preds = %entry, %if.end15
  %retval.0 = phi i32 [ 0, %if.end15 ], [ -2, %entry ]
  ret i32 %retval.0
}